target datalayout = "e-m:e-p270:32:32-p271:32:32-p272:64:64-i64:64-i128:128-f80:128-n8:16:32:64-S128"
target triple = "x86_64-pc-linux-gnu"

%"class.clang::ast_matchers::internal::DynMatcherInterface.base" = type <{ ptr, %"class.llvm::ThreadSafeRefCountedBase" }>
%"class.llvm::ThreadSafeRefCountedBase" = type { %"struct.std::atomic" }
%"struct.std::atomic" = type { %"struct.std::__atomic_base" }
%"struct.std::__atomic_base" = type { i32 }
%"class.llvm::IntrusiveRefCntPtr.349" = type { ptr }
%"class.clang::ast_matchers::internal::(anonymous namespace)::DynTraversalMatcherImpl" = type { %"class.clang::ast_matchers::internal::DynMatcherInterface.base", i32, %"class.llvm::IntrusiveRefCntPtr.349" }

; Function Attrs: mustprogress nounwind uwtable
define linkonce_odr hidden noundef ptr @_ZNK4llvm18IntrusiveRefCntPtrIN5clang12ast_matchers8internal19DynMatcherInterfaceEEptEv(ptr noundef nonnull align 8 dereferenceable(8) %0) #0 comdat align 2 {
  %2 = alloca ptr, align 8
  store ptr %0, ptr %2, align 8
  %3 = load ptr, ptr %2, align 8
  %4 = getelementptr inbounds nuw %"class.llvm::IntrusiveRefCntPtr.349", ptr %3, i32 0, i32 0
  %5 = load ptr, ptr %4, align 8
  ret ptr %5
}

; Function Attrs: mustprogress nounwind uwtable
define internal noundef zeroext i1 @_ZNK5clang12ast_matchers8internal12_GLOBAL__N_123DynTraversalMatcherImpl10dynMatchesERKNS_12DynTypedNodeEPNS1_14ASTMatchFinderEPNS1_21BoundNodesTreeBuilderE(ptr noundef nonnull align 8 dereferenceable(24) %0, ptr noundef nonnull align 8 dereferenceable(40) %1, ptr noundef %2, ptr noundef %3) unnamed_addr #0 align 2 {
  %5 = alloca ptr, align 8
  %6 = alloca ptr, align 8
  %7 = alloca ptr, align 8
  %8 = alloca ptr, align 8
  store ptr %0, ptr %5, align 8
  store ptr %1, ptr %6, align 8
  store ptr %2, ptr %7, align 8
  store ptr %3, ptr %8, align 8
  %9 = load ptr, ptr %5, align 8
  %10 = getelementptr inbounds nuw %"class.clang::ast_matchers::internal::(anonymous namespace)::DynTraversalMatcherImpl", ptr %9, i32 0, i32 2
  %11 = call noundef ptr @_ZNK4llvm18IntrusiveRefCntPtrIN5clang12ast_matchers8internal19DynMatcherInterfaceEEptEv(ptr noundef nonnull align 8 dereferenceable(8) %10)
  %12 = load ptr, ptr %6, align 8
  %13 = load ptr, ptr %7, align 8
  %14 = load ptr, ptr %8, align 8
  %15 = load ptr, ptr %11, align 8
  %16 = getelementptr inbounds ptr, ptr %15, i64 2
  %17 = load ptr, ptr %16, align 8
  %18 = call noundef zeroext i1 %17(ptr noundef nonnull align 8 dereferenceable(12) %11, ptr noundef nonnull align 8 dereferenceable(40) %12, ptr noundef %13, ptr noundef %14)
  ret i1 %18
}